target datalayout = "e-m:e-p270:32:32-p271:32:32-p272:64:64-i64:64-i128:128-f80:128-n8:16:32:64-S128"
target triple = "x86_64-pc-linux-gnu"

%struct.AVCodec = type { ptr, ptr, i32, i32, i32, i8, ptr, ptr, ptr, ptr, ptr, ptr, ptr, ptr }

@.str.97 = private unnamed_addr constant [9 x i8] c"encoders\00", align 1
@.str.98 = private unnamed_addr constant [9 x i8] c"decoders\00", align 1
@.str.127 = private unnamed_addr constant [4 x i8] c" %s\00", align 1
@.str.159 = private unnamed_addr constant [6 x i8] c" (%s:\00", align 1
@.str.160 = private unnamed_addr constant [2 x i8] c")\00", align 1

; Function Attrs: nounwind uwtable
define internal ptr @next_codec_for_id(i32 noundef %0, ptr noundef %1, i32 noundef %2) #0 {
  %4 = alloca ptr, align 8
  %5 = alloca i32, align 4
  %6 = alloca ptr, align 8
  %7 = alloca i32, align 4
  %8 = alloca ptr, align 8
  %9 = alloca i32, align 4
  store i32 %0, ptr %5, align 4, !tbaa !10
  store ptr %1, ptr %6, align 8, !tbaa !89
  store i32 %2, ptr %7, align 4, !tbaa !10
  call void @llvm.lifetime.start.p0(i64 8, ptr %8) #11
  br label %10

10:                                               ; preds = %33, %3
  %11 = load ptr, ptr %6, align 8, !tbaa !89
  %12 = call ptr @av_codec_iterate(ptr noundef %11)
  store ptr %12, ptr %8, align 8, !tbaa !22
  %13 = icmp ne ptr %12, null
  br i1 %13, label %14, label %34

14:                                               ; preds = %10
  %15 = load ptr, ptr %8, align 8, !tbaa !22
  %16 = getelementptr inbounds nuw %struct.AVCodec, ptr %15, i32 0, i32 3
  %17 = load i32, ptr %16, align 4, !tbaa !90
  %18 = load i32, ptr %5, align 4, !tbaa !10
  %19 = icmp eq i32 %17, %18
  br i1 %19, label %20, label %33

20:                                               ; preds = %14
  %21 = load i32, ptr %7, align 4, !tbaa !10
  %22 = icmp ne i32 %21, 0
  br i1 %22, label %23, label %27

23:                                               ; preds = %20
  %24 = load ptr, ptr %8, align 8, !tbaa !22
  %25 = call i32 @av_codec_is_encoder(ptr noundef %24)
  %26 = icmp ne i32 %25, 0
  br i1 %26, label %31, label %33

27:                                               ; preds = %20
  %28 = load ptr, ptr %8, align 8, !tbaa !22
  %29 = call i32 @av_codec_is_decoder(ptr noundef %28)
  %30 = icmp ne i32 %29, 0
  br i1 %30, label %31, label %33

31:                                               ; preds = %27, %23
  %32 = load ptr, ptr %8, align 8, !tbaa !22
  store ptr %32, ptr %4, align 8
  store i32 1, ptr %9, align 4
  br label %35

33:                                               ; preds = %27, %23, %14
  br label %10, !llvm.loop !91

34:                                               ; preds = %10
  store ptr null, ptr %4, align 8
  store i32 1, ptr %9, align 4
  br label %35

35:                                               ; preds = %34, %31
  call void @llvm.lifetime.end.p0(i64 8, ptr %8) #11
  %36 = load ptr, ptr %4, align 8
  ret ptr %36
}

; Function Attrs: nounwind uwtable
define internal void @print_codecs_for_id(i32 noundef %0, i32 noundef %1) #0 {
  %3 = alloca i32, align 4
  %4 = alloca i32, align 4
  %5 = alloca ptr, align 8
  %6 = alloca ptr, align 8
  store i32 %0, ptr %3, align 4, !tbaa !10
  store i32 %1, ptr %4, align 4, !tbaa !10
  call void @llvm.lifetime.start.p0(i64 8, ptr %5) #11
  store ptr null, ptr %5, align 8, !tbaa !4
  call void @llvm.lifetime.start.p0(i64 8, ptr %6) #11
  %7 = load i32, ptr %4, align 4, !tbaa !10
  %8 = icmp ne i32 %7, 0
  %9 = select i1 %8, ptr @.str.97, ptr @.str.98
  %10 = call i32 (ptr, ...) @printf(ptr noundef @.str.159, ptr noundef %9)
  br label %11

11:                                               ; preds = %16, %2
  %12 = load i32, ptr %3, align 4, !tbaa !10
  %13 = load i32, ptr %4, align 4, !tbaa !10
  %14 = call ptr @next_codec_for_id(i32 noundef %12, ptr noundef %5, i32 noundef %13)
  store ptr %14, ptr %6, align 8, !tbaa !22
  %15 = icmp ne ptr %14, null
  br i1 %15, label %16, label %21

16:                                               ; preds = %11
  %17 = load ptr, ptr %6, align 8, !tbaa !22
  %18 = getelementptr inbounds nuw %struct.AVCodec, ptr %17, i32 0, i32 0
  %19 = load ptr, ptr %18, align 8, !tbaa !76
  %20 = call i32 (ptr, ...) @printf(ptr noundef @.str.127, ptr noundef %19)
  br label %11, !llvm.loop !92

21:                                               ; preds = %11
  %22 = call i32 (ptr, ...) @printf(ptr noundef @.str.160)
  call void @llvm.lifetime.end.p0(i64 8, ptr %6) #11
  call void @llvm.lifetime.end.p0(i64 8, ptr %5) #11
  ret void
}