; Function Attrs: nounwind uwtable
define internal fastcc void @print_codecs_for_id(i32 noundef %0, i32 noundef range(i32 0, 2) %1) unnamed_addr #2 {
  %3 = alloca ptr, align 8
  call void @llvm.lifetime.start.p0(i64 8, ptr nonnull %3) #17
  store ptr null, ptr %3, align 8, !tbaa !37
  %.not = icmp eq i32 %1, 0
  %4 = select i1 %.not, ptr @.str.98, ptr @.str.97
  %5 = tail call i32 (ptr, ...) @printf(ptr noundef nonnull dereferenceable(1) @.str.159, ptr noundef nonnull %4)
  %6 = call ptr @av_codec_iterate(ptr noundef nonnull %3) #17
  %.not11.i12 = icmp eq ptr %6, null
  br i1 %.not11.i12, label %.loopexit, label %.lr.ph.i.lr.ph

.lr.ph.i.lr.ph:                                   ; preds = %2
  br i1 %.not, label %.lr.ph.split.us.i.us, label %.lr.ph.split.i

.lr.ph.split.us.i.us:                             ; preds = %.lr.ph.i.lr.ph, %.lr.ph.split.us.i.us.backedge
  %7 = phi ptr [ %.be, %.lr.ph.split.us.i.us.backedge ], [ %6, %.lr.ph.i.lr.ph ]
  %8 = getelementptr inbounds nuw i8, ptr %7, i64 20
  %9 = load i32, ptr %8, align 4, !tbaa !39
  %10 = icmp eq i32 %9, %0
  br i1 %10, label %11, label %13

11:                                               ; preds = %.lr.ph.split.us.i.us
  %12 = call i32 @av_codec_is_decoder(ptr noundef nonnull %7) #17
  %.not9.us.i.us = icmp eq i32 %12, 0
  br i1 %.not9.us.i.us, label %13, label %next_codec_for_id.exit.loopexit.us

13:                                               ; preds = %11, %.lr.ph.split.us.i.us
  %14 = call ptr @av_codec_iterate(ptr noundef nonnull %3) #17
  %.not.us.i.us = icmp eq ptr %14, null
  br i1 %.not.us.i.us, label %.loopexit, label %.lr.ph.split.us.i.us.backedge

.lr.ph.split.us.i.us.backedge:                    ; preds = %13, %next_codec_for_id.exit.loopexit.us
  %.be = phi ptr [ %14, %13 ], [ %17, %next_codec_for_id.exit.loopexit.us ]
  br label %.lr.ph.split.us.i.us, !llvm.loop !74

next_codec_for_id.exit.loopexit.us:               ; preds = %11
  %15 = load ptr, ptr %7, align 8, !tbaa !68
  %16 = call i32 (ptr, ...) @printf(ptr noundef nonnull dereferenceable(1) @.str.127, ptr noundef %15)
  %17 = call ptr @av_codec_iterate(ptr noundef nonnull %3) #17
  %.not11.i.us = icmp eq ptr %17, null
  br i1 %.not11.i.us, label %.loopexit, label %.lr.ph.split.us.i.us.backedge

.lr.ph.split.i:                                   ; preds = %.lr.ph.i.lr.ph, %.lr.ph.split.i.backedge
  %18 = phi ptr [ %.be32, %.lr.ph.split.i.backedge ], [ %6, %.lr.ph.i.lr.ph ]
  %19 = getelementptr inbounds nuw i8, ptr %18, i64 20
  %20 = load i32, ptr %19, align 4, !tbaa !39
  %21 = icmp eq i32 %20, %0
  br i1 %21, label %22, label %24

22:                                               ; preds = %.lr.ph.split.i
  %23 = call i32 @av_codec_is_encoder(ptr noundef nonnull %18) #17
  %.not10.i = icmp eq i32 %23, 0
  br i1 %.not10.i, label %24, label %next_codec_for_id.exit.loopexit6

24:                                               ; preds = %22, %.lr.ph.split.i
  %25 = call ptr @av_codec_iterate(ptr noundef nonnull %3) #17
  %.not.i = icmp eq ptr %25, null
  br i1 %.not.i, label %.loopexit, label %.lr.ph.split.i.backedge

.lr.ph.split.i.backedge:                          ; preds = %24, %next_codec_for_id.exit.loopexit6
  %.be32 = phi ptr [ %25, %24 ], [ %28, %next_codec_for_id.exit.loopexit6 ]
  br label %.lr.ph.split.i, !llvm.loop !74

next_codec_for_id.exit.loopexit6:                 ; preds = %22
  %26 = load ptr, ptr %18, align 8, !tbaa !68
  %27 = call i32 (ptr, ...) @printf(ptr noundef nonnull dereferenceable(1) @.str.127, ptr noundef %26)
  %28 = call ptr @av_codec_iterate(ptr noundef nonnull %3) #17
  %.not11.i = icmp eq ptr %28, null
  br i1 %.not11.i, label %.loopexit, label %.lr.ph.split.i.backedge

.loopexit:                                        ; preds = %next_codec_for_id.exit.loopexit6, %24, %next_codec_for_id.exit.loopexit.us, %13, %2
  %putchar = call i32 @putchar(i32 41)
  call void @llvm.lifetime.end.p0(i64 8, ptr nonnull %3) #17
  ret void
}